; Function Attrs: mustprogress nofree norecurse nosync nounwind ssp willreturn memory(argmem: readwrite) uwtable
define hidden void @_sodium_ge25519_p3_add(ptr noundef writeonly captures(none) initializes((0, 160)) %0, ptr noundef readonly captures(none) %1, ptr noundef readonly captures(none) %2) local_unnamed_addr #0 {
  %4 = alloca %struct.ge25519_cached, align 8
  %5 = alloca %struct.ge25519_p1p1, align 8
  call void @llvm.lifetime.start.p0(i64 160, ptr nonnull %4) #12
  call void @llvm.lifetime.start.p0(i64 160, ptr nonnull %5) #12
  %6 = getelementptr inbounds nuw i8, ptr %2, i64 40
  %7 = load i64, ptr %6, align 8
  %8 = load i64, ptr %2, align 8
  %9 = add i64 %8, %7
  %10 = getelementptr i8, ptr %2, i64 48
  %11 = load i64, ptr %10, align 8
  %12 = getelementptr i8, ptr %2, i64 8
  %13 = load i64, ptr %12, align 8
  %14 = add i64 %13, %11
  %15 = getelementptr i8, ptr %2, i64 56
  %16 = load i64, ptr %15, align 8
  %17 = getelementptr i8, ptr %2, i64 16
  %18 = load i64, ptr %17, align 8
  %19 = add i64 %18, %16
  %20 = getelementptr i8, ptr %2, i64 64
  %21 = load i64, ptr %20, align 8
  %22 = getelementptr i8, ptr %2, i64 24
  %23 = load i64, ptr %22, align 8
  %24 = add i64 %23, %21
  %25 = getelementptr i8, ptr %2, i64 72
  %26 = load i64, ptr %25, align 8
  %27 = getelementptr i8, ptr %2, i64 32
  %28 = load i64, ptr %27, align 8
  %29 = add i64 %28, %26
  store i64 %9, ptr %4, align 8
  %30 = getelementptr inbounds nuw i8, ptr %4, i64 8
  store i64 %14, ptr %30, align 8
  %31 = getelementptr inbounds nuw i8, ptr %4, i64 16
  store i64 %19, ptr %31, align 8
  %32 = getelementptr inbounds nuw i8, ptr %4, i64 24
  store i64 %24, ptr %32, align 8
  %33 = getelementptr inbounds nuw i8, ptr %4, i64 32
  store i64 %29, ptr %33, align 8
  %34 = getelementptr inbounds nuw i8, ptr %4, i64 40
  %35 = lshr i64 %8, 51
  %36 = add i64 %13, %35
  %37 = and i64 %8, 2251799813685247
  %38 = lshr i64 %36, 51
  %39 = add i64 %38, %18
  %40 = and i64 %36, 2251799813685247
  %41 = lshr i64 %39, 51
  %42 = add i64 %41, %23
  %43 = and i64 %39, 2251799813685247
  %44 = lshr i64 %42, 51
  %45 = add i64 %44, %28
  %46 = and i64 %42, 2251799813685247
  %47 = lshr i64 %45, 51
  %48 = and i64 %45, 2251799813685247
  %.neg39.i.i = mul nsw i64 %47, -19
  %reass.sub.i = add i64 %7, 4503599627370458
  %49 = sub i64 %reass.sub.i, %37
  %50 = add i64 %49, %.neg39.i.i
  %reass.sub14.i = add i64 %11, 4503599627370494
  %51 = sub i64 %reass.sub14.i, %40
  %reass.sub15.i = add i64 %16, 4503599627370494
  %52 = sub i64 %reass.sub15.i, %43
  %reass.sub16.i = add i64 %21, 4503599627370494
  %53 = sub i64 %reass.sub16.i, %46
  %54 = add i64 %26, 4503599627370494
  %55 = sub i64 %54, %48
  store i64 %50, ptr %34, align 8
  %56 = getelementptr inbounds nuw i8, ptr %4, i64 48
  store i64 %51, ptr %56, align 8
  %57 = getelementptr inbounds nuw i8, ptr %4, i64 56
  store i64 %52, ptr %57, align 8
  %58 = getelementptr inbounds nuw i8, ptr %4, i64 64
  store i64 %53, ptr %58, align 8
  %59 = getelementptr inbounds nuw i8, ptr %4, i64 72
  store i64 %55, ptr %59, align 8
  %60 = getelementptr inbounds nuw i8, ptr %4, i64 80
  %61 = getelementptr inbounds nuw i8, ptr %2, i64 80
  call void @llvm.memcpy.p0.p0.i64(ptr noundef nonnull align 8 dereferenceable(40) %60, ptr noundef nonnull readonly align 1 dereferenceable(40) %61, i64 noundef 40, i1 noundef false) #12
  %62 = getelementptr inbounds nuw i8, ptr %4, i64 120
  %63 = getelementptr inbounds nuw i8, ptr %2, i64 120
  call fastcc void @fe25519_mul(ptr noundef nonnull %62, ptr noundef nonnull readonly %63, ptr noundef nonnull @ed25519_d2)
  call fastcc void @ge25519_add_cached(ptr noundef %5, ptr noundef %1, ptr noundef nonnull %4)
  %64 = getelementptr inbounds nuw i8, ptr %5, i64 120
  call fastcc void @fe25519_mul(ptr noundef %0, ptr noundef nonnull readonly %5, ptr noundef nonnull readonly %64)
  %65 = getelementptr inbounds nuw i8, ptr %0, i64 40
  %66 = getelementptr inbounds nuw i8, ptr %5, i64 40
  %67 = getelementptr inbounds nuw i8, ptr %5, i64 80
  call fastcc void @fe25519_mul(ptr noundef nonnull %65, ptr noundef nonnull readonly %66, ptr noundef nonnull readonly %67)
  %68 = getelementptr inbounds nuw i8, ptr %0, i64 80
  call fastcc void @fe25519_mul(ptr noundef nonnull %68, ptr noundef nonnull readonly %67, ptr noundef nonnull readonly %64)
  %69 = getelementptr inbounds nuw i8, ptr %0, i64 120
  call fastcc void @fe25519_mul(ptr noundef nonnull %69, ptr noundef nonnull readonly %5, ptr noundef nonnull readonly %66)
  call void @llvm.lifetime.end.p0(i64 160, ptr nonnull %5) #12
  call void @llvm.lifetime.end.p0(i64 160, ptr nonnull %4) #12
  ret void
}